; Function Attrs: mustprogress nounwind uwtable
define noundef zeroext i1 @_ZN32pxrInternal_v0_24__pxrReserved__23ArIsPackageRelativePathERKNSt7__cxx1112basic_stringIcSt11char_traitsIcESaIcEEE(ptr noundef nonnull align 8 dereferenceable(32) %0) local_unnamed_addr #0 {
  %2 = tail call noundef zeroext i1 @_ZNKSt7__cxx1112basic_stringIcSt11char_traitsIcESaIcEE5emptyEv(ptr noundef nonnull align 8 dereferenceable(32) %0) #7
  br i1 %2, label %13, label %3

3:                                                ; preds = %1
  %4 = tail call noundef nonnull align 1 dereferenceable(1) ptr @_ZNKSt7__cxx1112basic_stringIcSt11char_traitsIcESaIcEE4backEv(ptr noundef nonnull align 8 dereferenceable(32) %0) #7
  %5 = load i8, ptr %4, align 1
  %6 = icmp eq i8 %5, 93
  br i1 %6, label %7, label %13

7:                                                ; preds = %3
  %8 = tail call ptr @_ZNKSt7__cxx1112basic_stringIcSt11char_traitsIcESaIcEE3endEv(ptr noundef nonnull align 8 dereferenceable(32) %0) #7
  %9 = getelementptr inbounds i8, ptr %8, i64 -1
  %10 = tail call fastcc ptr @_ZN32pxrInternal_v0_24__pxrReserved__12_GLOBAL__N_129_FindMatchingOpeningDelimiterERKNSt7__cxx1112basic_stringIcSt11char_traitsIcESaIcEEEN9__gnu_cxx17__normal_iteratorIPKcS6_EE(ptr noundef nonnull align 8 dereferenceable(32) %0, ptr nonnull %9)
  %11 = tail call ptr @_ZNKSt7__cxx1112basic_stringIcSt11char_traitsIcESaIcEE3endEv(ptr noundef nonnull align 8 dereferenceable(32) %0) #7
  %12 = icmp ne ptr %10, %11
  br label %13

13:                                               ; preds = %7, %3, %1
  %14 = phi i1 [ false, %3 ], [ false, %1 ], [ %12, %7 ]
  ret i1 %14
}